target datalayout = "e-m:e-p270:32:32-p271:32:32-p272:64:64-i64:64-i128:128-f80:128-n8:16:32:64-S128"
target triple = "x86_64-pc-linux-gnu"

%struct.AVChannelLayout = type { i32, i32, %union.anon, ptr }
%union.anon = type { i64 }
%struct.AVChannelCustom = type { i32, [16 x i8], ptr }

; Function Attrs: alwaysinline nounwind willreturn memory(none) uwtable
define internal i32 @av_popcount_c(i32 noundef %0) #5 {
  %2 = alloca i32, align 4
  store i32 %0, ptr %2, align 4, !tbaa !9
  %3 = load i32, ptr %2, align 4, !tbaa !9
  %4 = lshr i32 %3, 1
  %5 = and i32 %4, 1431655765
  %6 = load i32, ptr %2, align 4, !tbaa !9
  %7 = sub i32 %6, %5
  store i32 %7, ptr %2, align 4, !tbaa !9
  %8 = load i32, ptr %2, align 4, !tbaa !9
  %9 = and i32 %8, 858993459
  %10 = load i32, ptr %2, align 4, !tbaa !9
  %11 = lshr i32 %10, 2
  %12 = and i32 %11, 858993459
  %13 = add i32 %9, %12
  store i32 %13, ptr %2, align 4, !tbaa !9
  %14 = load i32, ptr %2, align 4, !tbaa !9
  %15 = load i32, ptr %2, align 4, !tbaa !9
  %16 = lshr i32 %15, 4
  %17 = add i32 %14, %16
  %18 = and i32 %17, 252645135
  store i32 %18, ptr %2, align 4, !tbaa !9
  %19 = load i32, ptr %2, align 4, !tbaa !9
  %20 = lshr i32 %19, 8
  %21 = load i32, ptr %2, align 4, !tbaa !9
  %22 = add i32 %21, %20
  store i32 %22, ptr %2, align 4, !tbaa !9
  %23 = load i32, ptr %2, align 4, !tbaa !9
  %24 = load i32, ptr %2, align 4, !tbaa !9
  %25 = lshr i32 %24, 16
  %26 = add i32 %23, %25
  %27 = and i32 %26, 63
  ret i32 %27
}

; Function Attrs: alwaysinline nounwind willreturn memory(none) uwtable
define internal i32 @av_popcount64_c(i64 noundef %0) #5 {
  %2 = alloca i64, align 8
  store i64 %0, ptr %2, align 8, !tbaa !15
  %3 = load i64, ptr %2, align 8, !tbaa !15
  %4 = trunc i64 %3 to i32
  %5 = call i32 @av_popcount_c(i32 noundef %4) #13
  %6 = load i64, ptr %2, align 8, !tbaa !15
  %7 = lshr i64 %6, 32
  %8 = trunc i64 %7 to i32
  %9 = call i32 @av_popcount_c(i32 noundef %8) #13
  %10 = add nsw i32 %5, %9
  ret i32 %10
}

; Function Attrs: nounwind uwtable
define i32 @av_channel_layout_index_from_channel(ptr noundef %0, i32 noundef %1) #0 {
  %3 = alloca i32, align 4
  %4 = alloca ptr, align 8
  %5 = alloca i32, align 4
  %6 = alloca i32, align 4
  %7 = alloca i32, align 4
  %8 = alloca i64, align 8
  %9 = alloca i32, align 4
  store ptr %0, ptr %4, align 8, !tbaa !23
  store i32 %1, ptr %5, align 4, !tbaa !9
  call void @llvm.lifetime.start.p0(i64 4, ptr %6) #11
  %10 = load i32, ptr %5, align 4, !tbaa !9
  %11 = icmp eq i32 %10, -1
  br i1 %11, label %12, label %13

12:                                               ; preds = %2
  store i32 -22, ptr %3, align 4
  store i32 1, ptr %7, align 4
  br label %92

13:                                               ; preds = %2
  %14 = load ptr, ptr %4, align 8, !tbaa !23
  %15 = getelementptr inbounds nuw %struct.AVChannelLayout, ptr %14, i32 0, i32 0
  %16 = load i32, ptr %15, align 8, !tbaa !30
  switch i32 %16, label %91 [
    i32 2, label %17
    i32 3, label %42
    i32 1, label %42
  ]

17:                                               ; preds = %13
  store i32 0, ptr %6, align 4, !tbaa !9
  br label %18

18:                                               ; preds = %38, %17
  %19 = load i32, ptr %6, align 4, !tbaa !9
  %20 = load ptr, ptr %4, align 8, !tbaa !23
  %21 = getelementptr inbounds nuw %struct.AVChannelLayout, ptr %20, i32 0, i32 1
  %22 = load i32, ptr %21, align 4, !tbaa !32
  %23 = icmp slt i32 %19, %22
  br i1 %23, label %24, label %41

24:                                               ; preds = %18
  %25 = load ptr, ptr %4, align 8, !tbaa !23
  %26 = getelementptr inbounds nuw %struct.AVChannelLayout, ptr %25, i32 0, i32 2
  %27 = load ptr, ptr %26, align 8, !tbaa !22
  %28 = load i32, ptr %6, align 4, !tbaa !9
  %29 = sext i32 %28 to i64
  %30 = getelementptr inbounds %struct.AVChannelCustom, ptr %27, i64 %29
  %31 = getelementptr inbounds nuw %struct.AVChannelCustom, ptr %30, i32 0, i32 0
  %32 = load i32, ptr %31, align 8, !tbaa !27
  %33 = load i32, ptr %5, align 4, !tbaa !9
  %34 = icmp eq i32 %32, %33
  br i1 %34, label %35, label %37

35:                                               ; preds = %24
  %36 = load i32, ptr %6, align 4, !tbaa !9
  store i32 %36, ptr %3, align 4
  store i32 1, ptr %7, align 4
  br label %92

37:                                               ; preds = %24
  br label %38

38:                                               ; preds = %37
  %39 = load i32, ptr %6, align 4, !tbaa !9
  %40 = add nsw i32 %39, 1
  store i32 %40, ptr %6, align 4, !tbaa !9
  br label %18, !llvm.loop !51

41:                                               ; preds = %18
  store i32 -22, ptr %3, align 4
  store i32 1, ptr %7, align 4
  br label %92

42:                                               ; preds = %13, %13
  call void @llvm.lifetime.start.p0(i64 8, ptr %8) #11
  %43 = load ptr, ptr %4, align 8, !tbaa !23
  %44 = getelementptr inbounds nuw %struct.AVChannelLayout, ptr %43, i32 0, i32 2
  %45 = load i64, ptr %44, align 8, !tbaa !22
  store i64 %45, ptr %8, align 8, !tbaa !15
  call void @llvm.lifetime.start.p0(i64 4, ptr %9) #11
  %46 = load ptr, ptr %4, align 8, !tbaa !23
  %47 = getelementptr inbounds nuw %struct.AVChannelLayout, ptr %46, i32 0, i32 1
  %48 = load i32, ptr %47, align 4, !tbaa !32
  %49 = load i64, ptr %8, align 8, !tbaa !15
  %50 = call i32 @av_popcount64_c(i64 noundef %49) #13
  %51 = sub nsw i32 %48, %50
  store i32 %51, ptr %9, align 4, !tbaa !9
  %52 = load ptr, ptr %4, align 8, !tbaa !23
  %53 = getelementptr inbounds nuw %struct.AVChannelLayout, ptr %52, i32 0, i32 0
  %54 = load i32, ptr %53, align 8, !tbaa !30
  %55 = icmp eq i32 %54, 3
  br i1 %55, label %56, label %68

56:                                               ; preds = %42
  %57 = load i32, ptr %5, align 4, !tbaa !9
  %58 = icmp sge i32 %57, 1024
  br i1 %58, label %59, label %68

59:                                               ; preds = %56
  %60 = load i32, ptr %5, align 4, !tbaa !9
  %61 = sub nsw i32 %60, 1024
  %62 = load i32, ptr %9, align 4, !tbaa !9
  %63 = icmp sge i32 %61, %62
  br i1 %63, label %64, label %65

64:                                               ; preds = %59
  store i32 -22, ptr %3, align 4
  store i32 1, ptr %7, align 4
  br label %90

65:                                               ; preds = %59
  %66 = load i32, ptr %5, align 4, !tbaa !9
  %67 = sub nsw i32 %66, 1024
  store i32 %67, ptr %3, align 4
  store i32 1, ptr %7, align 4
  br label %90

68:                                               ; preds = %56, %42
  %69 = load i32, ptr %5, align 4, !tbaa !9
  %70 = icmp ugt i32 %69, 63
  br i1 %70, label %78, label %71

71:                                               ; preds = %68
  %72 = load i64, ptr %8, align 8, !tbaa !15
  %73 = load i32, ptr %5, align 4, !tbaa !9
  %74 = zext i32 %73 to i64
  %75 = shl i64 1, %74
  %76 = and i64 %72, %75
  %77 = icmp ne i64 %76, 0
  br i1 %77, label %79, label %78

78:                                               ; preds = %71, %68
  store i32 -22, ptr %3, align 4
  store i32 1, ptr %7, align 4
  br label %90

79:                                               ; preds = %71
  %80 = load i32, ptr %5, align 4, !tbaa !9
  %81 = zext i32 %80 to i64
  %82 = shl i64 1, %81
  %83 = sub i64 %82, 1
  %84 = load i64, ptr %8, align 8, !tbaa !15
  %85 = and i64 %84, %83
  store i64 %85, ptr %8, align 8, !tbaa !15
  %86 = load i64, ptr %8, align 8, !tbaa !15
  %87 = call i32 @av_popcount64_c(i64 noundef %86) #13
  %88 = load i32, ptr %9, align 4, !tbaa !9
  %89 = add nsw i32 %87, %88
  store i32 %89, ptr %3, align 4
  store i32 1, ptr %7, align 4
  br label %90

90:                                               ; preds = %79, %78, %65, %64
  call void @llvm.lifetime.end.p0(i64 4, ptr %9) #11
  call void @llvm.lifetime.end.p0(i64 8, ptr %8) #11
  br label %92

91:                                               ; preds = %13
  store i32 -22, ptr %3, align 4
  store i32 1, ptr %7, align 4
  br label %92

92:                                               ; preds = %91, %90, %41, %35, %12
  call void @llvm.lifetime.end.p0(i64 4, ptr %6) #11
  %93 = load i32, ptr %3, align 4
  ret i32 %93
}