; Function Attrs: nofree norecurse nosync nounwind memory(read, inaccessiblemem: none) uwtable
define i32 @av_channel_layout_index_from_channel(ptr noundef readonly captures(none) %0, i32 noundef %1) local_unnamed_addr #9 {
  %3 = icmp eq i32 %1, -1
  br i1 %3, label %.loopexit, label %4

4:                                                ; preds = %2
  %5 = load i32, ptr %0, align 8, !tbaa !18
  switch i32 %5, label %.loopexit [
    i32 2, label %.preheader
    i32 3, label %16
    i32 1, label %16
  ]

.preheader:                                       ; preds = %4
  %6 = getelementptr inbounds nuw i8, ptr %0, i64 4
  %7 = load i32, ptr %6, align 4, !tbaa !20
  %8 = icmp sgt i32 %7, 0
  br i1 %8, label %.lr.ph, label %.loopexit

.lr.ph:                                           ; preds = %.preheader
  %9 = getelementptr inbounds nuw i8, ptr %0, i64 8
  %10 = load ptr, ptr %9, align 8, !tbaa !17
  %wide.trip.count = zext nneg i32 %7 to i64
  br label %11

11:                                               ; preds = %.lr.ph, %15
  %indvars.iv = phi i64 [ 0, %.lr.ph ], [ %indvars.iv.next, %15 ]
  %12 = getelementptr inbounds nuw %struct.AVChannelCustom, ptr %10, i64 %indvars.iv
  %13 = load i32, ptr %12, align 8, !tbaa !21
  %14 = icmp eq i32 %13, %1
  br i1 %14, label %.loopexit.loopexit.split.loop.exit35, label %15

15:                                               ; preds = %11
  %indvars.iv.next = add nuw nsw i64 %indvars.iv, 1
  %exitcond.not = icmp eq i64 %indvars.iv.next, %wide.trip.count
  br i1 %exitcond.not, label %.loopexit, label %11, !llvm.loop !44

16:                                               ; preds = %4, %4
  %17 = getelementptr inbounds nuw i8, ptr %0, i64 8
  %18 = load i64, ptr %17, align 8, !tbaa !17
  %19 = getelementptr inbounds nuw i8, ptr %0, i64 4
  %20 = load i32, ptr %19, align 4, !tbaa !20
  %21 = trunc i64 %18 to i32
  %22 = lshr i32 %21, 1
  %23 = and i32 %22, 1431655765
  %24 = sub i32 %21, %23
  %25 = and i32 %24, 858993459
  %26 = lshr i32 %24, 2
  %27 = and i32 %26, 858993459
  %28 = add nuw nsw i32 %27, %25
  %29 = lshr i32 %28, 4
  %30 = add nuw nsw i32 %29, %28
  %31 = and i32 %30, 252645135
  %32 = lshr i32 %31, 8
  %33 = add nuw nsw i32 %32, %31
  %34 = lshr i32 %33, 16
  %35 = add nuw nsw i32 %34, %33
  %36 = and i32 %35, 63
  %37 = lshr i64 %18, 32
  %38 = trunc nuw i64 %37 to i32
  %39 = lshr i32 %38, 1
  %40 = and i32 %39, 1431655765
  %41 = sub i32 %38, %40
  %42 = and i32 %41, 858993459
  %43 = lshr i32 %41, 2
  %44 = and i32 %43, 858993459
  %45 = add nuw nsw i32 %44, %42
  %46 = lshr i32 %45, 4
  %47 = add nuw nsw i32 %46, %45
  %48 = and i32 %47, 252645135
  %49 = lshr i32 %48, 8
  %50 = add nuw nsw i32 %49, %48
  %51 = lshr i32 %50, 16
  %52 = add nuw nsw i32 %51, %50
  %53 = and i32 %52, 63
  %54 = add nuw nsw i32 %36, %53
  %55 = sub i32 %20, %54
  %56 = icmp eq i32 %5, 3
  %57 = icmp sgt i32 %1, 1023
  %or.cond = and i1 %57, %56
  br i1 %or.cond, label %58, label %60

58:                                               ; preds = %16
  %59 = add nsw i32 %1, -1024
  %.not28 = icmp slt i32 %59, %55
  %. = select i1 %.not28, i32 %59, i32 -22
  br label %.loopexit

60:                                               ; preds = %16
  %61 = icmp ugt i32 %1, 63
  br i1 %61, label %.loopexit, label %62

62:                                               ; preds = %60
  %63 = zext nneg i32 %1 to i64
  %64 = shl nuw i64 1, %63
  %65 = and i64 %18, %64
  %.not = icmp eq i64 %65, 0
  br i1 %.not, label %.loopexit, label %66

66:                                               ; preds = %62
  %67 = add i64 %64, -1
  %68 = and i64 %18, %67
  %69 = trunc i64 %68 to i32
  %70 = lshr i32 %69, 1
  %71 = and i32 %70, 1431655765
  %72 = sub i32 %69, %71
  %73 = and i32 %72, 858993459
  %74 = lshr i32 %72, 2
  %75 = and i32 %74, 858993459
  %76 = add nuw nsw i32 %75, %73
  %77 = lshr i32 %76, 4
  %78 = add nuw nsw i32 %77, %76
  %79 = and i32 %78, 252645135
  %80 = lshr i32 %79, 8
  %81 = add nuw nsw i32 %80, %79
  %82 = lshr i32 %81, 16
  %83 = add nuw nsw i32 %82, %81
  %84 = and i32 %83, 63
  %85 = lshr i64 %68, 32
  %86 = trunc nuw nsw i64 %85 to i32
  %87 = lshr i32 %86, 1
  %88 = and i32 %87, 1431655765
  %89 = sub nsw i32 %86, %88
  %90 = and i32 %89, 858993459
  %91 = lshr i32 %89, 2
  %92 = and i32 %91, 858993459
  %93 = add nuw nsw i32 %92, %90
  %94 = lshr i32 %93, 4
  %95 = add nuw nsw i32 %94, %93
  %96 = and i32 %95, 252645135
  %97 = lshr i32 %96, 8
  %98 = add nuw nsw i32 %97, %96
  %99 = lshr i32 %98, 16
  %100 = add nuw nsw i32 %99, %98
  %101 = and i32 %100, 63
  %102 = add nuw nsw i32 %101, %84
  %103 = add nsw i32 %102, %55
  br label %.loopexit

.loopexit.loopexit.split.loop.exit35:             ; preds = %11
  %104 = trunc nuw nsw i64 %indvars.iv to i32
  br label %.loopexit

.loopexit:                                        ; preds = %15, %.loopexit.loopexit.split.loop.exit35, %.preheader, %4, %66, %58, %62, %60, %2
  %.0 = phi i32 [ -22, %2 ], [ %103, %66 ], [ %., %58 ], [ -22, %62 ], [ -22, %60 ], [ -22, %4 ], [ -22, %.preheader ], [ %104, %.loopexit.loopexit.split.loop.exit35 ], [ -22, %15 ]
  ret i32 %.0
}